target datalayout = "e-m:e-p270:32:32-p271:32:32-p272:64:64-i64:64-i128:128-f80:128-n8:16:32:64-S128"
target triple = "x86_64-pc-linux-gnu"

%struct.__loadu_si128 = type { <2 x i64> }
%struct.__storeu_si128 = type { <2 x i64> }

; Function Attrs: alwaysinline nounwind uwtable
define internal <2 x i64> @_mm_set_epi16(i16 noundef signext %0, i16 noundef signext %1, i16 noundef signext %2, i16 noundef signext %3, i16 noundef signext %4, i16 noundef signext %5, i16 noundef signext %6, i16 noundef signext %7) #3 {
  %9 = alloca i16, align 2
  %10 = alloca i16, align 2
  %11 = alloca i16, align 2
  %12 = alloca i16, align 2
  %13 = alloca i16, align 2
  %14 = alloca i16, align 2
  %15 = alloca i16, align 2
  %16 = alloca i16, align 2
  %17 = alloca <8 x i16>, align 16
  store i16 %0, ptr %9, align 2, !tbaa !16
  store i16 %1, ptr %10, align 2, !tbaa !16
  store i16 %2, ptr %11, align 2, !tbaa !16
  store i16 %3, ptr %12, align 2, !tbaa !16
  store i16 %4, ptr %13, align 2, !tbaa !16
  store i16 %5, ptr %14, align 2, !tbaa !16
  store i16 %6, ptr %15, align 2, !tbaa !16
  store i16 %7, ptr %16, align 2, !tbaa !16
  %18 = load i16, ptr %16, align 2, !tbaa !16
  %19 = insertelement <8 x i16> poison, i16 %18, i32 0
  %20 = load i16, ptr %15, align 2, !tbaa !16
  %21 = insertelement <8 x i16> %19, i16 %20, i32 1
  %22 = load i16, ptr %14, align 2, !tbaa !16
  %23 = insertelement <8 x i16> %21, i16 %22, i32 2
  %24 = load i16, ptr %13, align 2, !tbaa !16
  %25 = insertelement <8 x i16> %23, i16 %24, i32 3
  %26 = load i16, ptr %12, align 2, !tbaa !16
  %27 = insertelement <8 x i16> %25, i16 %26, i32 4
  %28 = load i16, ptr %11, align 2, !tbaa !16
  %29 = insertelement <8 x i16> %27, i16 %28, i32 5
  %30 = load i16, ptr %10, align 2, !tbaa !16
  %31 = insertelement <8 x i16> %29, i16 %30, i32 6
  %32 = load i16, ptr %9, align 2, !tbaa !16
  %33 = insertelement <8 x i16> %31, i16 %32, i32 7
  store <8 x i16> %33, ptr %17, align 16, !tbaa !13
  %34 = load <8 x i16>, ptr %17, align 16, !tbaa !13
  %35 = bitcast <8 x i16> %34 to <2 x i64>
  ret <2 x i64> %35
}

; Function Attrs: nounwind uwtable
define internal zeroext i16 @clip_SSE2(i32 noundef %0, i32 noundef %1) #0 {
  %3 = alloca i32, align 4
  %4 = alloca i32, align 4
  store i32 %0, ptr %3, align 4, !tbaa !9
  store i32 %1, ptr %4, align 4, !tbaa !9
  %5 = load i32, ptr %3, align 4, !tbaa !9
  %6 = icmp slt i32 %5, 0
  br i1 %6, label %7, label %8

7:                                                ; preds = %2
  br label %20

8:                                                ; preds = %2
  %9 = load i32, ptr %3, align 4, !tbaa !9
  %10 = load i32, ptr %4, align 4, !tbaa !9
  %11 = icmp sgt i32 %9, %10
  br i1 %11, label %12, label %14

12:                                               ; preds = %8
  %13 = load i32, ptr %4, align 4, !tbaa !9
  br label %18

14:                                               ; preds = %8
  %15 = load i32, ptr %3, align 4, !tbaa !9
  %16 = trunc i32 %15 to i16
  %17 = zext i16 %16 to i32
  br label %18

18:                                               ; preds = %14, %12
  %19 = phi i32 [ %13, %12 ], [ %17, %14 ]
  br label %20

20:                                               ; preds = %18, %7
  %21 = phi i32 [ 0, %7 ], [ %19, %18 ]
  %22 = trunc i32 %21 to i16
  ret i16 %22
}

; Function Attrs: alwaysinline nounwind uwtable
define internal <2 x i64> @_mm_add_epi32(<2 x i64> noundef %0, <2 x i64> noundef %1) #3 {
  %3 = alloca <2 x i64>, align 16
  %4 = alloca <2 x i64>, align 16
  store <2 x i64> %0, ptr %3, align 16, !tbaa !13
  store <2 x i64> %1, ptr %4, align 16, !tbaa !13
  %5 = load <2 x i64>, ptr %3, align 16, !tbaa !13
  %6 = bitcast <2 x i64> %5 to <4 x i32>
  %7 = load <2 x i64>, ptr %4, align 16, !tbaa !13
  %8 = bitcast <2 x i64> %7 to <4 x i32>
  %9 = add <4 x i32> %6, %8
  %10 = bitcast <4 x i32> %9 to <2 x i64>
  ret <2 x i64> %10
}

; Function Attrs: alwaysinline nounwind uwtable
define internal void @_mm_storeu_si128(ptr noundef %0, <2 x i64> noundef %1) #3 {
  %3 = alloca ptr, align 8
  %4 = alloca <2 x i64>, align 16
  store ptr %0, ptr %3, align 8, !tbaa !3
  store <2 x i64> %1, ptr %4, align 16, !tbaa !13
  %5 = load <2 x i64>, ptr %4, align 16, !tbaa !13
  %6 = load ptr, ptr %3, align 8, !tbaa !3
  %7 = getelementptr inbounds nuw %struct.__storeu_si128, ptr %6, i32 0, i32 0
  store <2 x i64> %5, ptr %7, align 1, !tbaa !13
  ret void
}

; Function Attrs: alwaysinline nounwind uwtable
define internal <2 x i64> @_mm_madd_epi16(<2 x i64> noundef %0, <2 x i64> noundef %1) #3 {
  %3 = alloca <2 x i64>, align 16
  %4 = alloca <2 x i64>, align 16
  store <2 x i64> %0, ptr %3, align 16, !tbaa !13
  store <2 x i64> %1, ptr %4, align 16, !tbaa !13
  %5 = load <2 x i64>, ptr %3, align 16, !tbaa !13
  %6 = bitcast <2 x i64> %5 to <8 x i16>
  %7 = load <2 x i64>, ptr %4, align 16, !tbaa !13
  %8 = bitcast <2 x i64> %7 to <8 x i16>
  %9 = call <4 x i32> @llvm.x86.sse2.pmadd.wd(<8 x i16> %6, <8 x i16> %8)
  %10 = bitcast <4 x i32> %9 to <2 x i64>
  ret <2 x i64> %10
}

; Function Attrs: alwaysinline nounwind uwtable
define internal <2 x i64> @_mm_max_epi16(<2 x i64> noundef %0, <2 x i64> noundef %1) #3 {
  %3 = alloca <2 x i64>, align 16
  %4 = alloca <2 x i64>, align 16
  store <2 x i64> %0, ptr %3, align 16, !tbaa !13
  store <2 x i64> %1, ptr %4, align 16, !tbaa !13
  %5 = load <2 x i64>, ptr %3, align 16, !tbaa !13
  %6 = bitcast <2 x i64> %5 to <8 x i16>
  %7 = load <2 x i64>, ptr %4, align 16, !tbaa !13
  %8 = bitcast <2 x i64> %7 to <8 x i16>
  %9 = call <8 x i16> @llvm.smax.v8i16(<8 x i16> %6, <8 x i16> %8)
  %10 = bitcast <8 x i16> %9 to <2 x i64>
  ret <2 x i64> %10
}

; Function Attrs: alwaysinline nounwind uwtable
define internal <2 x i64> @_mm_min_epi16(<2 x i64> noundef %0, <2 x i64> noundef %1) #3 {
  %3 = alloca <2 x i64>, align 16
  %4 = alloca <2 x i64>, align 16
  store <2 x i64> %0, ptr %3, align 16, !tbaa !13
  store <2 x i64> %1, ptr %4, align 16, !tbaa !13
  %5 = load <2 x i64>, ptr %3, align 16, !tbaa !13
  %6 = bitcast <2 x i64> %5 to <8 x i16>
  %7 = load <2 x i64>, ptr %4, align 16, !tbaa !13
  %8 = bitcast <2 x i64> %7 to <8 x i16>
  %9 = call <8 x i16> @llvm.smin.v8i16(<8 x i16> %6, <8 x i16> %8)
  %10 = bitcast <8 x i16> %9 to <2 x i64>
  ret <2 x i64> %10
}

; Function Attrs: alwaysinline nounwind uwtable
define internal <2 x i64> @_mm_or_si128(<2 x i64> noundef %0, <2 x i64> noundef %1) #3 {
  %3 = alloca <2 x i64>, align 16
  %4 = alloca <2 x i64>, align 16
  store <2 x i64> %0, ptr %3, align 16, !tbaa !13
  store <2 x i64> %1, ptr %4, align 16, !tbaa !13
  %5 = load <2 x i64>, ptr %3, align 16, !tbaa !13
  %6 = load <2 x i64>, ptr %4, align 16, !tbaa !13
  %7 = or <2 x i64> %5, %6
  ret <2 x i64> %7
}

; Function Attrs: alwaysinline nounwind uwtable
define internal <2 x i64> @_mm_add_epi16(<2 x i64> noundef %0, <2 x i64> noundef %1) #3 {
  %3 = alloca <2 x i64>, align 16
  %4 = alloca <2 x i64>, align 16
  store <2 x i64> %0, ptr %3, align 16, !tbaa !13
  store <2 x i64> %1, ptr %4, align 16, !tbaa !13
  %5 = load <2 x i64>, ptr %3, align 16, !tbaa !13
  %6 = bitcast <2 x i64> %5 to <8 x i16>
  %7 = load <2 x i64>, ptr %4, align 16, !tbaa !13
  %8 = bitcast <2 x i64> %7 to <8 x i16>
  %9 = add <8 x i16> %6, %8
  %10 = bitcast <8 x i16> %9 to <2 x i64>
  ret <2 x i64> %10
}

; Function Attrs: alwaysinline nounwind uwtable
define internal <2 x i64> @_mm_cmpgt_epi16(<2 x i64> noundef %0, <2 x i64> noundef %1) #3 {
  %3 = alloca <2 x i64>, align 16
  %4 = alloca <2 x i64>, align 16
  store <2 x i64> %0, ptr %3, align 16, !tbaa !13
  store <2 x i64> %1, ptr %4, align 16, !tbaa !13
  %5 = load <2 x i64>, ptr %3, align 16, !tbaa !13
  %6 = bitcast <2 x i64> %5 to <8 x i16>
  %7 = load <2 x i64>, ptr %4, align 16, !tbaa !13
  %8 = bitcast <2 x i64> %7 to <8 x i16>
  %9 = icmp sgt <8 x i16> %6, %8
  %10 = sext <8 x i1> %9 to <8 x i16>
  %11 = bitcast <8 x i16> %10 to <2 x i64>
  ret <2 x i64> %11
}

; Function Attrs: alwaysinline nounwind uwtable
define internal <2 x i64> @_mm_sub_epi16(<2 x i64> noundef %0, <2 x i64> noundef %1) #3 {
  %3 = alloca <2 x i64>, align 16
  %4 = alloca <2 x i64>, align 16
  store <2 x i64> %0, ptr %3, align 16, !tbaa !13
  store <2 x i64> %1, ptr %4, align 16, !tbaa !13
  %5 = load <2 x i64>, ptr %3, align 16, !tbaa !13
  %6 = bitcast <2 x i64> %5 to <8 x i16>
  %7 = load <2 x i64>, ptr %4, align 16, !tbaa !13
  %8 = bitcast <2 x i64> %7 to <8 x i16>
  %9 = sub <8 x i16> %6, %8
  %10 = bitcast <8 x i16> %9 to <2 x i64>
  ret <2 x i64> %10
}

; Function Attrs: alwaysinline nounwind uwtable
define internal <2 x i64> @_mm_loadu_si128(ptr noundef %0) #3 {
  %2 = alloca ptr, align 8
  store ptr %0, ptr %2, align 8, !tbaa !3
  %3 = load ptr, ptr %2, align 8, !tbaa !3
  %4 = getelementptr inbounds nuw %struct.__loadu_si128, ptr %3, i32 0, i32 0
  %5 = load <2 x i64>, ptr %4, align 1, !tbaa !13
  ret <2 x i64> %5
}

; Function Attrs: alwaysinline nounwind uwtable
define internal <2 x i64> @_mm_set1_epi16(i16 noundef signext %0) #3 {
  %2 = alloca i16, align 2
  store i16 %0, ptr %2, align 2, !tbaa !16
  %3 = load i16, ptr %2, align 2, !tbaa !16
  %4 = load i16, ptr %2, align 2, !tbaa !16
  %5 = load i16, ptr %2, align 2, !tbaa !16
  %6 = load i16, ptr %2, align 2, !tbaa !16
  %7 = load i16, ptr %2, align 2, !tbaa !16
  %8 = load i16, ptr %2, align 2, !tbaa !16
  %9 = load i16, ptr %2, align 2, !tbaa !16
  %10 = load i16, ptr %2, align 2, !tbaa !16
  %11 = call <2 x i64> @_mm_set_epi16(i16 noundef signext %3, i16 noundef signext %4, i16 noundef signext %5, i16 noundef signext %6, i16 noundef signext %7, i16 noundef signext %8, i16 noundef signext %9, i16 noundef signext %10)
  ret <2 x i64> %11
}

; Function Attrs: alwaysinline nounwind uwtable
define internal <2 x i64> @_mm_setzero_si128() #3 {
  %1 = alloca <2 x i64>, align 16
  store <2 x i64> zeroinitializer, ptr %1, align 16, !tbaa !13
  %2 = load <2 x i64>, ptr %1, align 16, !tbaa !13
  ret <2 x i64> %2
}

; Function Attrs: nounwind uwtable
define internal i64 @SharpYuvUpdateY_SSE2(ptr noundef %0, ptr noundef %1, ptr noundef %2, i32 noundef %3, i32 noundef %4) #1 {
  %6 = alloca ptr, align 8
  %7 = alloca ptr, align 8
  %8 = alloca ptr, align 8
  %9 = alloca i32, align 4
  %10 = alloca i32, align 4
  %11 = alloca i32, align 4
  %12 = alloca i64, align 8
  %13 = alloca [4 x i32], align 16
  %14 = alloca i32, align 4
  %15 = alloca <2 x i64>, align 16
  %16 = alloca <2 x i64>, align 16
  %17 = alloca <2 x i64>, align 16
  %18 = alloca <2 x i64>, align 16
  %19 = alloca <2 x i64>, align 16
  %20 = alloca <2 x i64>, align 16
  %21 = alloca <2 x i64>, align 16
  %22 = alloca <2 x i64>, align 16
  %23 = alloca <2 x i64>, align 16
  %24 = alloca <2 x i64>, align 16
  %25 = alloca <2 x i64>, align 16
  %26 = alloca <2 x i64>, align 16
  %27 = alloca <2 x i64>, align 16
  %28 = alloca i32, align 4
  %29 = alloca i32, align 4
  store ptr %0, ptr %6, align 8, !tbaa !7
  store ptr %1, ptr %7, align 8, !tbaa !7
  store ptr %2, ptr %8, align 8, !tbaa !7
  store i32 %3, ptr %9, align 4, !tbaa !9
  store i32 %4, ptr %10, align 4, !tbaa !9
  call void @llvm.lifetime.start.p0(i64 4, ptr %11) #7
  %30 = load i32, ptr %10, align 4, !tbaa !9
  %31 = shl i32 1, %30
  %32 = sub nsw i32 %31, 1
  store i32 %32, ptr %11, align 4, !tbaa !9
  call void @llvm.lifetime.start.p0(i64 8, ptr %12) #7
  store i64 0, ptr %12, align 8, !tbaa !11
  call void @llvm.lifetime.start.p0(i64 16, ptr %13) #7
  call void @llvm.lifetime.start.p0(i64 4, ptr %14) #7
  call void @llvm.lifetime.start.p0(i64 16, ptr %15) #7
  %33 = call <2 x i64> @_mm_setzero_si128()
  store <2 x i64> %33, ptr %15, align 16, !tbaa !13
  call void @llvm.lifetime.start.p0(i64 16, ptr %16) #7
  %34 = load i32, ptr %11, align 4, !tbaa !9
  %35 = trunc i32 %34 to i16
  %36 = call <2 x i64> @_mm_set1_epi16(i16 noundef signext %35)
  store <2 x i64> %36, ptr %16, align 16, !tbaa !13
  call void @llvm.lifetime.start.p0(i64 16, ptr %17) #7
  %37 = call <2 x i64> @_mm_set1_epi16(i16 noundef signext 1)
  store <2 x i64> %37, ptr %17, align 16, !tbaa !13
  call void @llvm.lifetime.start.p0(i64 16, ptr %18) #7
  %38 = load <2 x i64>, ptr %15, align 16, !tbaa !13
  store <2 x i64> %38, ptr %18, align 16, !tbaa !13
  store i32 0, ptr %14, align 4, !tbaa !9
  br label %39

39:                                               ; preds = %88, %5
  %40 = load i32, ptr %14, align 4, !tbaa !9
  %41 = add nsw i32 %40, 8
  %42 = load i32, ptr %9, align 4, !tbaa !9
  %43 = icmp sle i32 %41, %42
  br i1 %43, label %44, label %91

44:                                               ; preds = %39
  call void @llvm.lifetime.start.p0(i64 16, ptr %19) #7
  %45 = load ptr, ptr %6, align 8, !tbaa !7
  %46 = load i32, ptr %14, align 4, !tbaa !9
  %47 = sext i32 %46 to i64
  %48 = getelementptr inbounds i16, ptr %45, i64 %47
  %49 = call <2 x i64> @_mm_loadu_si128(ptr noundef %48)
  store <2 x i64> %49, ptr %19, align 16, !tbaa !13
  call void @llvm.lifetime.start.p0(i64 16, ptr %20) #7
  %50 = load ptr, ptr %7, align 8, !tbaa !7
  %51 = load i32, ptr %14, align 4, !tbaa !9
  %52 = sext i32 %51 to i64
  %53 = getelementptr inbounds i16, ptr %50, i64 %52
  %54 = call <2 x i64> @_mm_loadu_si128(ptr noundef %53)
  store <2 x i64> %54, ptr %20, align 16, !tbaa !13
  call void @llvm.lifetime.start.p0(i64 16, ptr %21) #7
  %55 = load ptr, ptr %8, align 8, !tbaa !7
  %56 = load i32, ptr %14, align 4, !tbaa !9
  %57 = sext i32 %56 to i64
  %58 = getelementptr inbounds i16, ptr %55, i64 %57
  %59 = call <2 x i64> @_mm_loadu_si128(ptr noundef %58)
  store <2 x i64> %59, ptr %21, align 16, !tbaa !13
  call void @llvm.lifetime.start.p0(i64 16, ptr %22) #7
  %60 = load <2 x i64>, ptr %19, align 16, !tbaa !13
  %61 = load <2 x i64>, ptr %20, align 16, !tbaa !13
  %62 = call <2 x i64> @_mm_sub_epi16(<2 x i64> noundef %60, <2 x i64> noundef %61)
  store <2 x i64> %62, ptr %22, align 16, !tbaa !13
  call void @llvm.lifetime.start.p0(i64 16, ptr %23) #7
  %63 = load <2 x i64>, ptr %15, align 16, !tbaa !13
  %64 = load <2 x i64>, ptr %22, align 16, !tbaa !13
  %65 = call <2 x i64> @_mm_cmpgt_epi16(<2 x i64> noundef %63, <2 x i64> noundef %64)
  store <2 x i64> %65, ptr %23, align 16, !tbaa !13
  call void @llvm.lifetime.start.p0(i64 16, ptr %24) #7
  %66 = load <2 x i64>, ptr %21, align 16, !tbaa !13
  %67 = load <2 x i64>, ptr %22, align 16, !tbaa !13
  %68 = call <2 x i64> @_mm_add_epi16(<2 x i64> noundef %66, <2 x i64> noundef %67)
  store <2 x i64> %68, ptr %24, align 16, !tbaa !13
  call void @llvm.lifetime.start.p0(i64 16, ptr %25) #7
  %69 = load <2 x i64>, ptr %23, align 16, !tbaa !13
  %70 = load <2 x i64>, ptr %17, align 16, !tbaa !13
  %71 = call <2 x i64> @_mm_or_si128(<2 x i64> noundef %69, <2 x i64> noundef %70)
  store <2 x i64> %71, ptr %25, align 16, !tbaa !13
  call void @llvm.lifetime.start.p0(i64 16, ptr %26) #7
  %72 = load <2 x i64>, ptr %24, align 16, !tbaa !13
  %73 = load <2 x i64>, ptr %16, align 16, !tbaa !13
  %74 = call <2 x i64> @_mm_min_epi16(<2 x i64> noundef %72, <2 x i64> noundef %73)
  %75 = load <2 x i64>, ptr %15, align 16, !tbaa !13
  %76 = call <2 x i64> @_mm_max_epi16(<2 x i64> noundef %74, <2 x i64> noundef %75)
  store <2 x i64> %76, ptr %26, align 16, !tbaa !13
  call void @llvm.lifetime.start.p0(i64 16, ptr %27) #7
  %77 = load <2 x i64>, ptr %22, align 16, !tbaa !13
  %78 = load <2 x i64>, ptr %25, align 16, !tbaa !13
  %79 = call <2 x i64> @_mm_madd_epi16(<2 x i64> noundef %77, <2 x i64> noundef %78)
  store <2 x i64> %79, ptr %27, align 16, !tbaa !13
  %80 = load ptr, ptr %8, align 8, !tbaa !7
  %81 = load i32, ptr %14, align 4, !tbaa !9
  %82 = sext i32 %81 to i64
  %83 = getelementptr inbounds i16, ptr %80, i64 %82
  %84 = load <2 x i64>, ptr %26, align 16, !tbaa !13
  call void @_mm_storeu_si128(ptr noundef %83, <2 x i64> noundef %84)
  %85 = load <2 x i64>, ptr %18, align 16, !tbaa !13
  %86 = load <2 x i64>, ptr %27, align 16, !tbaa !13
  %87 = call <2 x i64> @_mm_add_epi32(<2 x i64> noundef %85, <2 x i64> noundef %86)
  store <2 x i64> %87, ptr %18, align 16, !tbaa !13
  call void @llvm.lifetime.end.p0(i64 16, ptr %27) #7
  call void @llvm.lifetime.end.p0(i64 16, ptr %26) #7
  call void @llvm.lifetime.end.p0(i64 16, ptr %25) #7
  call void @llvm.lifetime.end.p0(i64 16, ptr %24) #7
  call void @llvm.lifetime.end.p0(i64 16, ptr %23) #7
  call void @llvm.lifetime.end.p0(i64 16, ptr %22) #7
  call void @llvm.lifetime.end.p0(i64 16, ptr %21) #7
  call void @llvm.lifetime.end.p0(i64 16, ptr %20) #7
  call void @llvm.lifetime.end.p0(i64 16, ptr %19) #7
  br label %88

88:                                               ; preds = %44
  %89 = load i32, ptr %14, align 4, !tbaa !9
  %90 = add nsw i32 %89, 8
  store i32 %90, ptr %14, align 4, !tbaa !9
  br label %39, !llvm.loop !14

91:                                               ; preds = %39
  %92 = getelementptr inbounds [4 x i32], ptr %13, i64 0, i64 0
  %93 = load <2 x i64>, ptr %18, align 16, !tbaa !13
  call void @_mm_storeu_si128(ptr noundef %92, <2 x i64> noundef %93)
  %94 = getelementptr inbounds [4 x i32], ptr %13, i64 0, i64 3
  %95 = load i32, ptr %94, align 4, !tbaa !9
  %96 = getelementptr inbounds [4 x i32], ptr %13, i64 0, i64 2
  %97 = load i32, ptr %96, align 8, !tbaa !9
  %98 = add i32 %95, %97
  %99 = getelementptr inbounds [4 x i32], ptr %13, i64 0, i64 1
  %100 = load i32, ptr %99, align 4, !tbaa !9
  %101 = add i32 %98, %100
  %102 = getelementptr inbounds [4 x i32], ptr %13, i64 0, i64 0
  %103 = load i32, ptr %102, align 16, !tbaa !9
  %104 = add i32 %101, %103
  %105 = zext i32 %104 to i64
  store i64 %105, ptr %12, align 8, !tbaa !11
  br label %106

106:                                              ; preds = %144, %91
  %107 = load i32, ptr %14, align 4, !tbaa !9
  %108 = load i32, ptr %9, align 4, !tbaa !9
  %109 = icmp slt i32 %107, %108
  br i1 %109, label %110, label %147

110:                                              ; preds = %106
  call void @llvm.lifetime.start.p0(i64 4, ptr %28) #7
  %111 = load ptr, ptr %6, align 8, !tbaa !7
  %112 = load i32, ptr %14, align 4, !tbaa !9
  %113 = sext i32 %112 to i64
  %114 = getelementptr inbounds i16, ptr %111, i64 %113
  %115 = load i16, ptr %114, align 2, !tbaa !16
  %116 = zext i16 %115 to i32
  %117 = load ptr, ptr %7, align 8, !tbaa !7
  %118 = load i32, ptr %14, align 4, !tbaa !9
  %119 = sext i32 %118 to i64
  %120 = getelementptr inbounds i16, ptr %117, i64 %119
  %121 = load i16, ptr %120, align 2, !tbaa !16
  %122 = zext i16 %121 to i32
  %123 = sub nsw i32 %116, %122
  store i32 %123, ptr %28, align 4, !tbaa !9
  call void @llvm.lifetime.start.p0(i64 4, ptr %29) #7
  %124 = load ptr, ptr %8, align 8, !tbaa !7
  %125 = load i32, ptr %14, align 4, !tbaa !9
  %126 = sext i32 %125 to i64
  %127 = getelementptr inbounds i16, ptr %124, i64 %126
  %128 = load i16, ptr %127, align 2, !tbaa !16
  %129 = zext i16 %128 to i32
  %130 = load i32, ptr %28, align 4, !tbaa !9
  %131 = add nsw i32 %129, %130
  store i32 %131, ptr %29, align 4, !tbaa !9
  %132 = load i32, ptr %29, align 4, !tbaa !9
  %133 = load i32, ptr %11, align 4, !tbaa !9
  %134 = call zeroext i16 @clip_SSE2(i32 noundef %132, i32 noundef %133)
  %135 = load ptr, ptr %8, align 8, !tbaa !7
  %136 = load i32, ptr %14, align 4, !tbaa !9
  %137 = sext i32 %136 to i64
  %138 = getelementptr inbounds i16, ptr %135, i64 %137
  store i16 %134, ptr %138, align 2, !tbaa !16
  %139 = load i32, ptr %28, align 4, !tbaa !9
  %140 = call i32 @llvm.abs.i32(i32 %139, i1 true)
  %141 = sext i32 %140 to i64
  %142 = load i64, ptr %12, align 8, !tbaa !11
  %143 = add i64 %142, %141
  store i64 %143, ptr %12, align 8, !tbaa !11
  call void @llvm.lifetime.end.p0(i64 4, ptr %29) #7
  call void @llvm.lifetime.end.p0(i64 4, ptr %28) #7
  br label %144

144:                                              ; preds = %110
  %145 = load i32, ptr %14, align 4, !tbaa !9
  %146 = add nsw i32 %145, 1
  store i32 %146, ptr %14, align 4, !tbaa !9
  br label %106, !llvm.loop !18

147:                                              ; preds = %106
  %148 = load i64, ptr %12, align 8, !tbaa !11
  call void @llvm.lifetime.end.p0(i64 16, ptr %18) #7
  call void @llvm.lifetime.end.p0(i64 16, ptr %17) #7
  call void @llvm.lifetime.end.p0(i64 16, ptr %16) #7
  call void @llvm.lifetime.end.p0(i64 16, ptr %15) #7
  call void @llvm.lifetime.end.p0(i64 4, ptr %14) #7
  call void @llvm.lifetime.end.p0(i64 16, ptr %13) #7
  call void @llvm.lifetime.end.p0(i64 8, ptr %12) #7
  call void @llvm.lifetime.end.p0(i64 4, ptr %11) #7
  ret i64 %148
}