; Function Attrs: nofree norecurse nosync nounwind memory(argmem: readwrite) uwtable
define internal i64 @SharpYuvUpdateY_SSE2(ptr noundef readonly captures(none) %0, ptr noundef readonly captures(none) %1, ptr noundef captures(none) %2, i32 noundef %3, i32 noundef %4) #1 {
  %notmask = shl nsw i32 -1, %4
  %6 = xor i32 %notmask, -1
  %7 = trunc i32 %6 to i16
  %8 = insertelement <8 x i16> poison, i16 %7, i64 0
  %9 = shufflevector <8 x i16> %8, <8 x i16> poison, <8 x i32> zeroinitializer
  %.not52 = icmp slt i32 %3, 8
  br i1 %.not52, label %._crit_edge, label %.lr.ph.preheader

.lr.ph.preheader:                                 ; preds = %5
  %10 = zext nneg i32 %3 to i64
  br label %.lr.ph

.lr.ph:                                           ; preds = %.lr.ph.preheader, %.lr.ph
  %indvars.iv64 = phi i64 [ 0, %.lr.ph.preheader ], [ %indvars.iv.next65, %.lr.ph ]
  %indvars.iv = phi i64 [ 8, %.lr.ph.preheader ], [ %indvars.iv.next, %.lr.ph ]
  %11 = phi <4 x i32> [ zeroinitializer, %.lr.ph.preheader ], [ %24, %.lr.ph ]
  %12 = getelementptr inbounds nuw i16, ptr %0, i64 %indvars.iv64
  %13 = load <8 x i16>, ptr %12, align 1, !tbaa !7
  %14 = getelementptr inbounds nuw i16, ptr %1, i64 %indvars.iv64
  %15 = load <8 x i16>, ptr %14, align 1, !tbaa !7
  %16 = getelementptr inbounds nuw i16, ptr %2, i64 %indvars.iv64
  %17 = load <8 x i16>, ptr %16, align 1, !tbaa !7
  %18 = sub <8 x i16> %13, %15
  %.lobit.i = ashr <8 x i16> %18, splat (i16 15)
  %19 = add <8 x i16> %17, %18
  %20 = tail call <8 x i16> @llvm.smin.v8i16(<8 x i16> %19, <8 x i16> %9)
  %21 = tail call <8 x i16> @llvm.smax.v8i16(<8 x i16> %20, <8 x i16> zeroinitializer)
  %22 = or <8 x i16> %.lobit.i, splat (i16 1)
  %23 = tail call <4 x i32> @llvm.x86.sse2.pmadd.wd(<8 x i16> %18, <8 x i16> %22)
  store <8 x i16> %21, ptr %16, align 1, !tbaa !7
  %24 = add <4 x i32> %23, %11
  %indvars.iv.next = add nuw nsw i64 %indvars.iv, 8
  %.not = icmp samesign ugt i64 %indvars.iv.next, %10
  %indvars.iv.next65 = add nuw nsw i64 %indvars.iv64, 8
  br i1 %.not, label %._crit_edge.loopexit, label %.lr.ph, !llvm.loop !8

._crit_edge.loopexit:                             ; preds = %.lr.ph
  %25 = trunc nuw nsw i64 %indvars.iv to i32
  br label %._crit_edge

._crit_edge:                                      ; preds = %._crit_edge.loopexit, %5
  %.lcssa = phi <4 x i32> [ zeroinitializer, %5 ], [ %24, %._crit_edge.loopexit ]
  %.047.lcssa = phi i32 [ 0, %5 ], [ %25, %._crit_edge.loopexit ]
  %26 = shufflevector <4 x i32> %.lcssa, <4 x i32> poison, <4 x i32> <i32 3, i32 poison, i32 poison, i32 poison>
  %27 = shufflevector <4 x i32> %.lcssa, <4 x i32> poison, <4 x i32> <i32 2, i32 poison, i32 poison, i32 poison>
  %28 = add <4 x i32> %26, %27
  %29 = shufflevector <4 x i32> %.lcssa, <4 x i32> poison, <4 x i32> <i32 1, i32 poison, i32 poison, i32 poison>
  %shift77 = add <4 x i32> %28, %29
  %30 = add <4 x i32> %shift77, %.lcssa
  %31 = extractelement <4 x i32> %30, i64 0
  %32 = zext i32 %31 to i64
  %33 = icmp slt i32 %.047.lcssa, %3
  br i1 %33, label %.lr.ph58.preheader, label %._crit_edge59

.lr.ph58.preheader:                               ; preds = %._crit_edge
  %34 = zext nneg i32 %.047.lcssa to i64
  %wide.trip.count = zext i32 %3 to i64
  br label %.lr.ph58

.lr.ph58:                                         ; preds = %.lr.ph58.preheader, %.lr.ph58
  %indvars.iv69 = phi i64 [ %34, %.lr.ph58.preheader ], [ %indvars.iv.next70, %.lr.ph58 ]
  %.056 = phi i64 [ %32, %.lr.ph58.preheader ], [ %52, %.lr.ph58 ]
  %35 = getelementptr inbounds nuw i16, ptr %0, i64 %indvars.iv69
  %36 = load i16, ptr %35, align 2, !tbaa !10
  %37 = zext i16 %36 to i32
  %38 = getelementptr inbounds nuw i16, ptr %1, i64 %indvars.iv69
  %39 = load i16, ptr %38, align 2, !tbaa !10
  %40 = zext i16 %39 to i32
  %41 = sub nsw i32 %37, %40
  %42 = getelementptr inbounds nuw i16, ptr %2, i64 %indvars.iv69
  %43 = load i16, ptr %42, align 2, !tbaa !10
  %44 = zext i16 %43 to i32
  %45 = add nsw i32 %41, %44
  %46 = icmp slt i32 %45, 0
  %47 = tail call i32 @llvm.smin.i32(i32 range(i32 -65535, 131071) %45, i32 range(i32 -2147483648, 2147483647) %6)
  %48 = trunc i32 %47 to i16
  %49 = select i1 %46, i16 0, i16 %48
  store i16 %49, ptr %42, align 2, !tbaa !10
  %50 = tail call i32 @llvm.abs.i32(i32 %41, i1 true)
  %51 = zext nneg i32 %50 to i64
  %52 = add i64 %.056, %51
  %indvars.iv.next70 = add nuw nsw i64 %indvars.iv69, 1
  %exitcond.not = icmp eq i64 %indvars.iv.next70, %wide.trip.count
  br i1 %exitcond.not, label %._crit_edge59, label %.lr.ph58, !llvm.loop !12

._crit_edge59:                                    ; preds = %.lr.ph58, %._crit_edge
  %.0.lcssa = phi i64 [ %32, %._crit_edge ], [ %52, %.lr.ph58 ]
  ret i64 %.0.lcssa
}